; Function Attrs: nounwind uwtable
define i32 @EVP_KEYMGMT_names_do_all(ptr noundef readonly captures(none) %0, ptr noundef %1, ptr noundef %2) local_unnamed_addr #0 {
  %4 = getelementptr inbounds nuw i8, ptr %0, i64 32
  %5 = load ptr, ptr %4, align 8, !tbaa !17
  %.not = icmp eq ptr %5, null
  br i1 %.not, label %10, label %6

6:                                                ; preds = %3
  %7 = getelementptr inbounds nuw i8, ptr %0, i64 4
  %8 = load i32, ptr %7, align 4, !tbaa !12
  %9 = tail call i32 @evp_names_do_all(ptr noundef nonnull %5, i32 noundef %8, ptr noundef %1, ptr noundef %2) #5
  br label %10

10:                                               ; preds = %3, %6
  %.0 = phi i32 [ %9, %6 ], [ 1, %3 ]
  ret i32 %.0
}